/*
 * Intel ACPI Component Architecture
 * AML/ASL+ Disassembler version 20251212 (64-bit version)
 * Copyright (c) 2000 - 2025 Intel Corporation
 * 
 * Disassembly of nhlt.dat
 *
 * ACPI Data Table [NHLT]
 *
 * Format: [HexOffset DecimalOffset ByteLength]  FieldName : FieldValue (in hex)
 */

[000h 0000 004h]                   Signature : "NHLT"    [Non HD Audio Link Table]
[004h 0004 004h]                Table Length : 000002E3
[008h 0008 001h]                    Revision : 00
[009h 0009 001h]                    Checksum : 71
[00Ah 0010 006h]                      Oem ID : "MSFT  "
[010h 0016 008h]                Oem Table ID : "MSFT    "
[018h 0024 004h]                Oem Revision : 00000002
[01Ch 0028 004h]             Asl Compiler ID : "MSFT"
[020h 0032 004h]       Asl Compiler Revision : 20191121


Raw Table Data: Length 739 (0x2E3)

    0000: 4E 48 4C 54 E3 02 00 00 00 71 4D 53 46 54 20 20  // NHLT.....qMSFT  
    0010: 4D 53 46 54 20 20 20 20 02 00 00 00 4D 53 46 54  // MSFT    ....MSFT
    0020: 21 11 19 20 02 9B 01 00 00 03 00 86 80 30 AE 01  // !.. .........0..
    0030: 00 01 00 00 00 00 00 02 02 00 00 00 00 00 03 FE  // ................
    0040: FF 01 00 40 1F 00 00 80 3E 00 00 02 00 10 00 16  // ...@....>.......
    0050: 00 10 00 04 00 00 00 01 00 00 00 00 00 10 00 80  // ................
    0060: 00 00 AA 00 38 9B 71 54 00 00 00 00 00 00 00 F0  // ....8.qT........
    0070: FF FF FF 00 00 00 00 00 00 00 00 00 00 00 00 00  // ................
    0080: 00 00 00 00 00 00 00 00 00 00 00 00 00 00 00 3F  // ...............?
    0090: 2B C1 80 00 00 70 C0 00 00 00 00 05 02 01 02 01  // +....p..........
    00A0: 00 00 00 01 00 00 00 02 40 00 00 00 00 00 00 00  // ........@.......
    00B0: 0F 01 06 20 00 00 00 01 00 00 00 FF 0F 00 00 FE  // ... ............
    00C0: FF 01 00 80 3E 00 00 00 7D 00 00 02 00 10 00 16  // ....>...}.......
    00D0: 00 10 00 04 00 00 00 01 00 00 00 00 00 10 00 80  // ................
    00E0: 00 00 AA 00 38 9B 71 54 00 00 00 00 00 00 00 F0  // ....8.qT........
    00F0: FF FF FF 00 00 00 F0 00 00 00 F0 00 00 00 F0 00  // ................
    0100: 00 00 F0 00 00 00 F0 00 00 00 F0 00 00 00 F0 3F  // ...............?
    0110: 95 C0 80 00 00 70 C0 00 00 00 00 05 02 01 02 01  // .....p..........
    0120: 00 00 00 01 00 00 00 02 40 00 00 00 00 00 00 00  // ........@.......
    0130: 0F 01 06 20 00 00 00 01 00 00 00 FF 0F 00 00 FE  // ... ............
    0140: FF 02 00 80 BB 00 00 00 EE 02 00 04 00 10 00 16  // ................
    0150: 00 10 00 03 00 00 00 01 00 00 00 00 00 10 00 80  // ................
    0160: 00 00 AA 00 38 9B 71 54 00 00 00 00 00 00 00 10  // ....8.qT........
    0170: FF FF FF FF FF FF FF FF FF FF FF FF FF FF FF FF  // ................
    0180: FF FF FF FF FF FF FF FF FF FF FF FF FF FF FF 7F  // ................
    0190: 18 C0 C1 00 00 70 C0 00 00 00 00 05 02 01 02 03  // .....p..........
    01A0: 00 00 00 03 00 00 00 02 40 00 00 00 00 00 00 00  // ........@.......
    01B0: 0F 07 07 20 00 00 00 01 00 00 00 FF 0F 00 00 00  // ... ............
    01C0: 1B 01 00 00 03 00 86 80 30 AE 01 00 01 00 00 00  // ........0.......
    01D0: 00 01 02 02 00 00 00 00 00 02 FE FF 01 00 40 1F  // ..............@.
    01E0: 00 00 80 3E 00 00 02 00 10 00 16 00 10 00 04 00  // ...>............
    01F0: 00 00 01 00 00 00 00 00 10 00 80 00 00 AA 00 38  // ...............8
    0200: 9B 71 54 00 00 00 00 00 00 00 F0 FF FF FF 00 00  // .qT.............
    0210: 00 00 00 00 00 00 00 00 00 00 00 00 00 00 00 00  // ................
    0220: 00 00 00 00 00 00 00 00 00 00 3F 2B C1 80 00 00  // ..........?+....
    0230: 70 C0 00 00 00 00 05 02 01 02 01 00 00 00 01 00  // p...............
    0240: 00 00 02 40 00 00 00 00 00 00 00 0F 01 06 20 00  // ...@.......... .
    0250: 00 00 01 00 00 00 FF 0F 00 00 FE FF 01 00 80 3E  // ...............>
    0260: 00 00 00 7D 00 00 02 00 10 00 16 00 10 00 04 00  // ...}............
    0270: 00 00 01 00 00 00 00 00 10 00 80 00 00 AA 00 38  // ...............8
    0280: 9B 71 54 00 00 00 00 00 00 00 F0 FF FF FF 00 00  // .qT.............
    0290: 00 00 00 00 00 00 00 00 00 00 00 00 00 00 00 00  // ................
    02A0: 00 00 00 00 00 00 00 00 00 00 3F 95 C0 80 00 00  // ..........?.....
    02B0: 70 C0 00 00 00 00 05 02 01 02 01 00 00 00 01 00  // p...............
    02C0: 00 00 02 40 00 00 00 00 00 00 00 0F 01 06 20 00  // ...@.......... .
    02D0: 00 00 01 00 00 00 FF 0F 00 00 00 04 00 00 00 DE  // ................
    02E0: AD BE EF                                         // ...
